target datalayout = "e-m:e-p270:32:32-p271:32:32-p272:64:64-i64:64-i128:128-f80:128-n8:16:32:64-S128"
target triple = "x86_64-pc-linux-gnu"

%"class.lean::object_ref" = type { ptr }

; Function Attrs: mustprogress uwtable
define linkonce_odr hidden noundef zeroext i1 @_ZN4lean4name2eqEP11lean_objectS2_(ptr noundef %0, ptr noundef %1) #0 comdat align 2 {
  %3 = alloca ptr, align 8
  %4 = alloca ptr, align 8
  store ptr %0, ptr %3, align 8, !tbaa !27
  store ptr %1, ptr %4, align 8, !tbaa !27
  %5 = load ptr, ptr %3, align 8, !tbaa !27
  %6 = load ptr, ptr %4, align 8, !tbaa !27
  %7 = call zeroext i8 @lean_name_eq(ptr noundef %5, ptr noundef %6)
  %8 = icmp ne i8 %7, 0
  ret i1 %8
}

; Function Attrs: mustprogress nounwind uwtable
define linkonce_odr hidden noundef ptr @_ZNK4lean10object_ref3rawEv(ptr noundef nonnull align 8 dereferenceable(8) %0) #3 comdat align 2 {
  %2 = alloca ptr, align 8
  store ptr %0, ptr %2, align 8, !tbaa !39
  %3 = load ptr, ptr %2, align 8
  %4 = getelementptr inbounds nuw %"class.lean::object_ref", ptr %3, i32 0, i32 0
  %5 = load ptr, ptr %4, align 8, !tbaa !41
  ret ptr %5
}

; Function Attrs: mustprogress uwtable
define linkonce_odr hidden noundef zeroext i1 @_ZN4leaneqERKNS_4nameES2_(ptr noundef nonnull align 8 dereferenceable(8) %0, ptr noundef nonnull align 8 dereferenceable(8) %1) #0 comdat {
  %3 = alloca ptr, align 8
  %4 = alloca ptr, align 8
  store ptr %0, ptr %3, align 8, !tbaa !8
  store ptr %1, ptr %4, align 8, !tbaa !8
  %5 = load ptr, ptr %3, align 8, !tbaa !8
  %6 = call noundef ptr @_ZNK4lean10object_ref3rawEv(ptr noundef nonnull align 8 dereferenceable(8) %5)
  %7 = load ptr, ptr %4, align 8, !tbaa !8
  %8 = call noundef ptr @_ZNK4lean10object_ref3rawEv(ptr noundef nonnull align 8 dereferenceable(8) %7)
  %9 = call noundef zeroext i1 @_ZN4lean4name2eqEP11lean_objectS2_(ptr noundef %6, ptr noundef %8)
  ret i1 %9
}

; Function Attrs: mustprogress uwtable
define hidden noundef zeroext i1 @_ZN4lean23is_runtime_builtin_typeERKNS_4nameE(ptr noundef nonnull align 8 dereferenceable(8) %0) #0 {
  %2 = alloca ptr, align 8
  store ptr %0, ptr %2, align 8, !tbaa !8
  %3 = load ptr, ptr %2, align 8, !tbaa !8
  %4 = call noundef nonnull align 8 dereferenceable(8) ptr @_ZN4lean15get_string_nameEv()
  %5 = call noundef zeroext i1 @_ZN4leaneqERKNS_4nameES2_(ptr noundef nonnull align 8 dereferenceable(8) %3, ptr noundef nonnull align 8 dereferenceable(8) %4)
  br i1 %5, label %66, label %6

6:                                                ; preds = %1
  %7 = load ptr, ptr %2, align 8, !tbaa !8
  %8 = call noundef nonnull align 8 dereferenceable(8) ptr @_ZN4lean14get_uint8_nameEv()
  %9 = call noundef zeroext i1 @_ZN4leaneqERKNS_4nameES2_(ptr noundef nonnull align 8 dereferenceable(8) %7, ptr noundef nonnull align 8 dereferenceable(8) %8)
  br i1 %9, label %66, label %10

10:                                               ; preds = %6
  %11 = load ptr, ptr %2, align 8, !tbaa !8
  %12 = call noundef nonnull align 8 dereferenceable(8) ptr @_ZN4lean15get_uint16_nameEv()
  %13 = call noundef zeroext i1 @_ZN4leaneqERKNS_4nameES2_(ptr noundef nonnull align 8 dereferenceable(8) %11, ptr noundef nonnull align 8 dereferenceable(8) %12)
  br i1 %13, label %66, label %14

14:                                               ; preds = %10
  %15 = load ptr, ptr %2, align 8, !tbaa !8
  %16 = call noundef nonnull align 8 dereferenceable(8) ptr @_ZN4lean15get_uint32_nameEv()
  %17 = call noundef zeroext i1 @_ZN4leaneqERKNS_4nameES2_(ptr noundef nonnull align 8 dereferenceable(8) %15, ptr noundef nonnull align 8 dereferenceable(8) %16)
  br i1 %17, label %66, label %18

18:                                               ; preds = %14
  %19 = load ptr, ptr %2, align 8, !tbaa !8
  %20 = call noundef nonnull align 8 dereferenceable(8) ptr @_ZN4lean15get_uint64_nameEv()
  %21 = call noundef zeroext i1 @_ZN4leaneqERKNS_4nameES2_(ptr noundef nonnull align 8 dereferenceable(8) %19, ptr noundef nonnull align 8 dereferenceable(8) %20)
  br i1 %21, label %66, label %22

22:                                               ; preds = %18
  %23 = load ptr, ptr %2, align 8, !tbaa !8
  %24 = call noundef nonnull align 8 dereferenceable(8) ptr @_ZN4lean14get_usize_nameEv()
  %25 = call noundef zeroext i1 @_ZN4leaneqERKNS_4nameES2_(ptr noundef nonnull align 8 dereferenceable(8) %23, ptr noundef nonnull align 8 dereferenceable(8) %24)
  br i1 %25, label %66, label %26

26:                                               ; preds = %22
  %27 = load ptr, ptr %2, align 8, !tbaa !8
  %28 = call noundef nonnull align 8 dereferenceable(8) ptr @_ZN4lean14get_float_nameEv()
  %29 = call noundef zeroext i1 @_ZN4leaneqERKNS_4nameES2_(ptr noundef nonnull align 8 dereferenceable(8) %27, ptr noundef nonnull align 8 dereferenceable(8) %28)
  br i1 %29, label %66, label %30

30:                                               ; preds = %26
  %31 = load ptr, ptr %2, align 8, !tbaa !8
  %32 = call noundef nonnull align 8 dereferenceable(8) ptr @_ZN4lean16get_float32_nameEv()
  %33 = call noundef zeroext i1 @_ZN4leaneqERKNS_4nameES2_(ptr noundef nonnull align 8 dereferenceable(8) %31, ptr noundef nonnull align 8 dereferenceable(8) %32)
  br i1 %33, label %66, label %34

34:                                               ; preds = %30
  %35 = load ptr, ptr %2, align 8, !tbaa !8
  %36 = call noundef nonnull align 8 dereferenceable(8) ptr @_ZN4lean14get_thunk_nameEv()
  %37 = call noundef zeroext i1 @_ZN4leaneqERKNS_4nameES2_(ptr noundef nonnull align 8 dereferenceable(8) %35, ptr noundef nonnull align 8 dereferenceable(8) %36)
  br i1 %37, label %66, label %38

38:                                               ; preds = %34
  %39 = load ptr, ptr %2, align 8, !tbaa !8
  %40 = call noundef nonnull align 8 dereferenceable(8) ptr @_ZN4lean13get_task_nameEv()
  %41 = call noundef zeroext i1 @_ZN4leaneqERKNS_4nameES2_(ptr noundef nonnull align 8 dereferenceable(8) %39, ptr noundef nonnull align 8 dereferenceable(8) %40)
  br i1 %41, label %66, label %42

42:                                               ; preds = %38
  %43 = load ptr, ptr %2, align 8, !tbaa !8
  %44 = call noundef nonnull align 8 dereferenceable(8) ptr @_ZN4lean14get_array_nameEv()
  %45 = call noundef zeroext i1 @_ZN4leaneqERKNS_4nameES2_(ptr noundef nonnull align 8 dereferenceable(8) %43, ptr noundef nonnull align 8 dereferenceable(8) %44)
  br i1 %45, label %66, label %46

46:                                               ; preds = %42
  %47 = load ptr, ptr %2, align 8, !tbaa !8
  %48 = call noundef nonnull align 8 dereferenceable(8) ptr @_ZN4lean17get_mut_quot_nameEv()
  %49 = call noundef zeroext i1 @_ZN4leaneqERKNS_4nameES2_(ptr noundef nonnull align 8 dereferenceable(8) %47, ptr noundef nonnull align 8 dereferenceable(8) %48)
  br i1 %49, label %66, label %50

50:                                               ; preds = %46
  %51 = load ptr, ptr %2, align 8, !tbaa !8
  %52 = call noundef nonnull align 8 dereferenceable(8) ptr @_ZN4lean19get_byte_array_nameEv()
  %53 = call noundef zeroext i1 @_ZN4leaneqERKNS_4nameES2_(ptr noundef nonnull align 8 dereferenceable(8) %51, ptr noundef nonnull align 8 dereferenceable(8) %52)
  br i1 %53, label %66, label %54

54:                                               ; preds = %50
  %55 = load ptr, ptr %2, align 8, !tbaa !8
  %56 = call noundef nonnull align 8 dereferenceable(8) ptr @_ZN4lean20get_float_array_nameEv()
  %57 = call noundef zeroext i1 @_ZN4leaneqERKNS_4nameES2_(ptr noundef nonnull align 8 dereferenceable(8) %55, ptr noundef nonnull align 8 dereferenceable(8) %56)
  br i1 %57, label %66, label %58

58:                                               ; preds = %54
  %59 = load ptr, ptr %2, align 8, !tbaa !8
  %60 = call noundef nonnull align 8 dereferenceable(8) ptr @_ZN4lean12get_nat_nameEv()
  %61 = call noundef zeroext i1 @_ZN4leaneqERKNS_4nameES2_(ptr noundef nonnull align 8 dereferenceable(8) %59, ptr noundef nonnull align 8 dereferenceable(8) %60)
  br i1 %61, label %66, label %62

62:                                               ; preds = %58
  %63 = load ptr, ptr %2, align 8, !tbaa !8
  %64 = call noundef nonnull align 8 dereferenceable(8) ptr @_ZN4lean12get_int_nameEv()
  %65 = call noundef zeroext i1 @_ZN4leaneqERKNS_4nameES2_(ptr noundef nonnull align 8 dereferenceable(8) %63, ptr noundef nonnull align 8 dereferenceable(8) %64)
  br label %66

66:                                               ; preds = %62, %58, %54, %50, %46, %42, %38, %34, %30, %26, %22, %18, %14, %10, %6, %1
  %67 = phi i1 [ true, %58 ], [ true, %54 ], [ true, %50 ], [ true, %46 ], [ true, %42 ], [ true, %38 ], [ true, %34 ], [ true, %30 ], [ true, %26 ], [ true, %22 ], [ true, %18 ], [ true, %14 ], [ true, %10 ], [ true, %6 ], [ true, %1 ], [ %65, %62 ]
  ret i1 %67
}