; Function Attrs: mustprogress uwtable
define hidden noundef zeroext i1 @_ZN4lean23is_runtime_builtin_typeERKNS_4nameE(ptr noundef nonnull readonly align 8 captures(none) dereferenceable(8) %0) local_unnamed_addr #0 {
  %2 = tail call noundef nonnull align 8 dereferenceable(8) ptr @_ZN4lean15get_string_nameEv()
  %3 = load ptr, ptr %0, align 8, !tbaa !3
  %4 = load ptr, ptr %2, align 8, !tbaa !3
  %5 = tail call zeroext i8 @lean_name_eq(ptr noundef %3, ptr noundef %4)
  %.not = icmp eq i8 %5, 0
  br i1 %.not, label %6, label %82

6:                                                ; preds = %1
  %7 = tail call noundef nonnull align 8 dereferenceable(8) ptr @_ZN4lean14get_uint8_nameEv()
  %8 = load ptr, ptr %0, align 8, !tbaa !3
  %9 = load ptr, ptr %7, align 8, !tbaa !3
  %10 = tail call zeroext i8 @lean_name_eq(ptr noundef %8, ptr noundef %9)
  %.not16 = icmp eq i8 %10, 0
  br i1 %.not16, label %11, label %82

11:                                               ; preds = %6
  %12 = tail call noundef nonnull align 8 dereferenceable(8) ptr @_ZN4lean15get_uint16_nameEv()
  %13 = load ptr, ptr %0, align 8, !tbaa !3
  %14 = load ptr, ptr %12, align 8, !tbaa !3
  %15 = tail call zeroext i8 @lean_name_eq(ptr noundef %13, ptr noundef %14)
  %.not17 = icmp eq i8 %15, 0
  br i1 %.not17, label %16, label %82

16:                                               ; preds = %11
  %17 = tail call noundef nonnull align 8 dereferenceable(8) ptr @_ZN4lean15get_uint32_nameEv()
  %18 = load ptr, ptr %0, align 8, !tbaa !3
  %19 = load ptr, ptr %17, align 8, !tbaa !3
  %20 = tail call zeroext i8 @lean_name_eq(ptr noundef %18, ptr noundef %19)
  %.not18 = icmp eq i8 %20, 0
  br i1 %.not18, label %21, label %82

21:                                               ; preds = %16
  %22 = tail call noundef nonnull align 8 dereferenceable(8) ptr @_ZN4lean15get_uint64_nameEv()
  %23 = load ptr, ptr %0, align 8, !tbaa !3
  %24 = load ptr, ptr %22, align 8, !tbaa !3
  %25 = tail call zeroext i8 @lean_name_eq(ptr noundef %23, ptr noundef %24)
  %.not19 = icmp eq i8 %25, 0
  br i1 %.not19, label %26, label %82

26:                                               ; preds = %21
  %27 = tail call noundef nonnull align 8 dereferenceable(8) ptr @_ZN4lean14get_usize_nameEv()
  %28 = load ptr, ptr %0, align 8, !tbaa !3
  %29 = load ptr, ptr %27, align 8, !tbaa !3
  %30 = tail call zeroext i8 @lean_name_eq(ptr noundef %28, ptr noundef %29)
  %.not20 = icmp eq i8 %30, 0
  br i1 %.not20, label %31, label %82

31:                                               ; preds = %26
  %32 = tail call noundef nonnull align 8 dereferenceable(8) ptr @_ZN4lean14get_float_nameEv()
  %33 = load ptr, ptr %0, align 8, !tbaa !3
  %34 = load ptr, ptr %32, align 8, !tbaa !3
  %35 = tail call zeroext i8 @lean_name_eq(ptr noundef %33, ptr noundef %34)
  %.not21 = icmp eq i8 %35, 0
  br i1 %.not21, label %36, label %82

36:                                               ; preds = %31
  %37 = tail call noundef nonnull align 8 dereferenceable(8) ptr @_ZN4lean16get_float32_nameEv()
  %38 = load ptr, ptr %0, align 8, !tbaa !3
  %39 = load ptr, ptr %37, align 8, !tbaa !3
  %40 = tail call zeroext i8 @lean_name_eq(ptr noundef %38, ptr noundef %39)
  %.not22 = icmp eq i8 %40, 0
  br i1 %.not22, label %41, label %82

41:                                               ; preds = %36
  %42 = tail call noundef nonnull align 8 dereferenceable(8) ptr @_ZN4lean14get_thunk_nameEv()
  %43 = load ptr, ptr %0, align 8, !tbaa !3
  %44 = load ptr, ptr %42, align 8, !tbaa !3
  %45 = tail call zeroext i8 @lean_name_eq(ptr noundef %43, ptr noundef %44)
  %.not23 = icmp eq i8 %45, 0
  br i1 %.not23, label %46, label %82

46:                                               ; preds = %41
  %47 = tail call noundef nonnull align 8 dereferenceable(8) ptr @_ZN4lean13get_task_nameEv()
  %48 = load ptr, ptr %0, align 8, !tbaa !3
  %49 = load ptr, ptr %47, align 8, !tbaa !3
  %50 = tail call zeroext i8 @lean_name_eq(ptr noundef %48, ptr noundef %49)
  %.not24 = icmp eq i8 %50, 0
  br i1 %.not24, label %51, label %82

51:                                               ; preds = %46
  %52 = tail call noundef nonnull align 8 dereferenceable(8) ptr @_ZN4lean14get_array_nameEv()
  %53 = load ptr, ptr %0, align 8, !tbaa !3
  %54 = load ptr, ptr %52, align 8, !tbaa !3
  %55 = tail call zeroext i8 @lean_name_eq(ptr noundef %53, ptr noundef %54)
  %.not25 = icmp eq i8 %55, 0
  br i1 %.not25, label %56, label %82

56:                                               ; preds = %51
  %57 = tail call noundef nonnull align 8 dereferenceable(8) ptr @_ZN4lean17get_mut_quot_nameEv()
  %58 = load ptr, ptr %0, align 8, !tbaa !3
  %59 = load ptr, ptr %57, align 8, !tbaa !3
  %60 = tail call zeroext i8 @lean_name_eq(ptr noundef %58, ptr noundef %59)
  %.not26 = icmp eq i8 %60, 0
  br i1 %.not26, label %61, label %82

61:                                               ; preds = %56
  %62 = tail call noundef nonnull align 8 dereferenceable(8) ptr @_ZN4lean19get_byte_array_nameEv()
  %63 = load ptr, ptr %0, align 8, !tbaa !3
  %64 = load ptr, ptr %62, align 8, !tbaa !3
  %65 = tail call zeroext i8 @lean_name_eq(ptr noundef %63, ptr noundef %64)
  %.not27 = icmp eq i8 %65, 0
  br i1 %.not27, label %66, label %82

66:                                               ; preds = %61
  %67 = tail call noundef nonnull align 8 dereferenceable(8) ptr @_ZN4lean20get_float_array_nameEv()
  %68 = load ptr, ptr %0, align 8, !tbaa !3
  %69 = load ptr, ptr %67, align 8, !tbaa !3
  %70 = tail call zeroext i8 @lean_name_eq(ptr noundef %68, ptr noundef %69)
  %.not28 = icmp eq i8 %70, 0
  br i1 %.not28, label %71, label %82

71:                                               ; preds = %66
  %72 = tail call noundef nonnull align 8 dereferenceable(8) ptr @_ZN4lean12get_nat_nameEv()
  %73 = load ptr, ptr %0, align 8, !tbaa !3
  %74 = load ptr, ptr %72, align 8, !tbaa !3
  %75 = tail call zeroext i8 @lean_name_eq(ptr noundef %73, ptr noundef %74)
  %.not29 = icmp eq i8 %75, 0
  br i1 %.not29, label %76, label %82

76:                                               ; preds = %71
  %77 = tail call noundef nonnull align 8 dereferenceable(8) ptr @_ZN4lean12get_int_nameEv()
  %78 = load ptr, ptr %0, align 8, !tbaa !3
  %79 = load ptr, ptr %77, align 8, !tbaa !3
  %80 = tail call zeroext i8 @lean_name_eq(ptr noundef %78, ptr noundef %79)
  %81 = icmp ne i8 %80, 0
  br label %82

82:                                               ; preds = %76, %71, %66, %61, %56, %51, %46, %41, %36, %31, %26, %21, %16, %11, %6, %1
  %83 = phi i1 [ true, %71 ], [ true, %66 ], [ true, %61 ], [ true, %56 ], [ true, %51 ], [ true, %46 ], [ true, %41 ], [ true, %36 ], [ true, %31 ], [ true, %26 ], [ true, %21 ], [ true, %16 ], [ true, %11 ], [ true, %6 ], [ true, %1 ], [ %81, %76 ]
  ret i1 %83
}